target datalayout = "e-m:e-p270:32:32-p271:32:32-p272:64:64-i64:64-i128:128-f80:128-n8:16:32:64-S128"
target triple = "x86_64-pc-linux-gnu"

%struct.TCGContext = type { ptr, ptr, ptr, ptr, ptr, i32, i32, i32, i32, i32, i32, i32, i8, i8, i8, i32, i32, i64, i64, i64, ptr, ptr, ptr, ptr, ptr, i64, ptr, ptr, ptr, ptr, %struct.anon, ptr, ptr, ptr, ptr, ptr, [6 x ptr], [6 x %struct.TCGTempSet], [512 x %struct.TCGTemp], %union.anon, %union.anon, %struct.anon.0, ptr, [32 x ptr], [512 x i16], ptr, [1 x %struct.__jmp_buf_tag] }
%struct.anon = type { ptr, ptr }
%struct.TCGTempSet = type { [8 x i64] }
%struct.TCGTemp = type { i64, i64, ptr, i64, ptr, i64, ptr }
%union.anon = type { %struct.QTailQLink }
%struct.QTailQLink = type { ptr, ptr }
%struct.anon.0 = type { ptr, ptr }
%struct.__jmp_buf_tag = type { [8 x i64], i32, %struct.__sigset_t }
%struct.__sigset_t = type { [16 x i64] }

@tcg_ctx = dso_local thread_local global ptr null, align 8

; Function Attrs: inlinehint nounwind sspstrong uwtable
define internal i64 @temp_idx(ptr noundef %0) #3 {
  %2 = alloca ptr, align 8
  store ptr %0, ptr %2, align 8
  %3 = load ptr, ptr %2, align 8
  %4 = call align 8 ptr @llvm.threadlocal.address.p0(ptr align 8 @tcg_ctx)
  %5 = load ptr, ptr %4, align 8
  %6 = getelementptr inbounds nuw %struct.TCGContext, ptr %5, i32 0, i32 38
  %7 = getelementptr inbounds [512 x %struct.TCGTemp], ptr %6, i64 0, i64 0
  %8 = ptrtoint ptr %3 to i64
  %9 = ptrtoint ptr %7 to i64
  %10 = sub i64 %8, %9
  %11 = sdiv exact i64 %10, 56
  ret i64 %11
}

; Function Attrs: inlinehint nounwind sspstrong uwtable
define internal ptr @temp_tcgv_i32(ptr noundef %0) #3 {
  %2 = alloca ptr, align 8
  store ptr %0, ptr %2, align 8
  %3 = load ptr, ptr %2, align 8
  %4 = call i64 @temp_idx(ptr noundef %3)
  %5 = load ptr, ptr %2, align 8
  %6 = call align 8 ptr @llvm.threadlocal.address.p0(ptr align 8 @tcg_ctx)
  %7 = load ptr, ptr %6, align 8
  %8 = ptrtoint ptr %5 to i64
  %9 = ptrtoint ptr %7 to i64
  %10 = sub i64 %8, %9
  %11 = inttoptr i64 %10 to ptr
  ret ptr %11
}

; Function Attrs: inlinehint nounwind sspstrong uwtable
define internal ptr @tcgv_i32_temp(ptr noundef %0) #3 {
  %2 = alloca ptr, align 8
  store ptr %0, ptr %2, align 8
  %3 = call align 8 ptr @llvm.threadlocal.address.p0(ptr align 8 @tcg_ctx)
  %4 = load ptr, ptr %3, align 8
  %5 = load ptr, ptr %2, align 8
  %6 = ptrtoint ptr %5 to i64
  %7 = getelementptr inbounds nuw i8, ptr %4, i64 %6
  ret ptr %7
}

; Function Attrs: inlinehint nounwind sspstrong uwtable
define internal ptr @temp_tcgv_vec(ptr noundef %0) #3 {
  %2 = alloca ptr, align 8
  store ptr %0, ptr %2, align 8
  %3 = load ptr, ptr %2, align 8
  %4 = call ptr @temp_tcgv_i32(ptr noundef %3)
  ret ptr %4
}

; Function Attrs: inlinehint nounwind sspstrong uwtable
define internal ptr @tcgv_vec_temp(ptr noundef %0) #3 {
  %2 = alloca ptr, align 8
  store ptr %0, ptr %2, align 8
  %3 = load ptr, ptr %2, align 8
  %4 = call ptr @tcgv_i32_temp(ptr noundef %3)
  ret ptr %4
}

; Function Attrs: nounwind sspstrong uwtable
define dso_local ptr @tcg_temp_new_vec_matching(ptr noundef %0) #0 {
  %2 = alloca ptr, align 8
  %3 = alloca ptr, align 8
  store ptr %0, ptr %2, align 8
  call void @llvm.lifetime.start.p0(i64 8, ptr %3) #19
  %4 = load ptr, ptr %2, align 8
  %5 = call ptr @tcgv_vec_temp(ptr noundef %4)
  store ptr %5, ptr %3, align 8
  br label %6

6:                                                ; preds = %1
  %7 = load ptr, ptr %3, align 8
  %8 = load i64, ptr %7, align 8
  %9 = lshr i64 %8, 39
  %10 = and i64 %9, 1
  %11 = trunc i64 %10 to i32
  %12 = icmp ne i32 %11, 0
  br i1 %12, label %14, label %13

13:                                               ; preds = %6
  unreachable

14:                                               ; preds = %6
  br label %15

15:                                               ; preds = %14
  br label %16

16:                                               ; preds = %15
  %17 = load ptr, ptr %3, align 8
  %18 = load i64, ptr %17, align 8
  %19 = lshr i64 %18, 16
  %20 = and i64 %19, 255
  %21 = trunc i64 %20 to i32
  %22 = call ptr @tcg_temp_new_internal(i32 noundef %21, i32 noundef 0)
  store ptr %22, ptr %3, align 8
  %23 = load ptr, ptr %3, align 8
  %24 = call ptr @temp_tcgv_vec(ptr noundef %23)
  call void @llvm.lifetime.end.p0(i64 8, ptr %3) #19
  ret ptr %24
}