; Function Attrs: nounwind sspstrong uwtable
define dso_local ptr @tcg_temp_new_vec_matching(ptr noundef %0) local_unnamed_addr #0 {
  %2 = tail call align 8 ptr @llvm.threadlocal.address.p0(ptr align 8 @tcg_ctx)
  %3 = load ptr, ptr %2, align 8
  %4 = ptrtoint ptr %0 to i64
  %5 = getelementptr inbounds nuw i8, ptr %3, i64 %4
  %6 = load i64, ptr %5, align 8
  %7 = and i64 %6, 549755813888
  %8 = icmp ne i64 %7, 0
  tail call void @llvm.assume(i1 %8)
  %9 = trunc i64 %6 to i32
  %10 = lshr i32 %9, 16
  %11 = and i32 %10, 255
  %12 = tail call ptr @tcg_temp_new_internal(i32 noundef %11, i32 noundef 0)
  %13 = load ptr, ptr %2, align 8
  %14 = ptrtoint ptr %12 to i64
  %15 = ptrtoint ptr %13 to i64
  %16 = sub i64 %14, %15
  %17 = inttoptr i64 %16 to ptr
  ret ptr %17
}